target datalayout = "e-m:e-p270:32:32-p271:32:32-p272:64:64-i64:64-i128:128-f80:128-n8:16:32:64-S128"
target triple = "x86_64-pc-linux-gnu"

%"class.std::__shared_count" = type { ptr }
%"class.std::__cxx11::basic_string" = type { %"struct.std::__cxx11::basic_string<char>::_Alloc_hider", i64, %union.anon }
%"struct.std::__cxx11::basic_string<char>::_Alloc_hider" = type { ptr }
%union.anon = type { i64, [8 x i8] }
%"class.duckdb::optional_idx" = type { i64 }
%"class.duckdb::ParquetReader" = type { ptr, ptr, %"class.std::__cxx11::basic_string", %"class.duckdb::vector.4", %"class.duckdb::shared_ptr.10", %"struct.duckdb::ParquetOptions", %"struct.duckdb::MultiFileReaderData", %"class.duckdb::unique_ptr", %"class.duckdb::shared_ptr.85", %"class.duckdb::vector.89", %"class.duckdb::unique_ptr.95" }
%"class.duckdb::vector.4" = type { %"class.std::vector.5" }
%"class.std::vector.5" = type { %"struct.std::_Vector_base.6" }
%"struct.std::_Vector_base.6" = type { %"struct.std::_Vector_base<duckdb::MultiFileReaderColumnDefinition, std::allocator<duckdb::MultiFileReaderColumnDefinition>>::_Vector_impl" }
%"struct.std::_Vector_base<duckdb::MultiFileReaderColumnDefinition, std::allocator<duckdb::MultiFileReaderColumnDefinition>>::_Vector_impl" = type { %"struct.std::_Vector_base<duckdb::MultiFileReaderColumnDefinition, std::allocator<duckdb::MultiFileReaderColumnDefinition>>::_Vector_impl_data" }
%"struct.std::_Vector_base<duckdb::MultiFileReaderColumnDefinition, std::allocator<duckdb::MultiFileReaderColumnDefinition>>::_Vector_impl_data" = type { ptr, ptr, ptr }
%"class.duckdb::shared_ptr.10" = type { %"class.std::shared_ptr.11" }
%"class.std::shared_ptr.11" = type { %"class.std::__shared_ptr.12" }
%"class.std::__shared_ptr.12" = type { ptr, %"class.std::__shared_count" }
%"struct.duckdb::ParquetOptions" = type { i8, i8, %"class.duckdb::shared_ptr.14", i8, %"struct.duckdb::MultiFileReaderOptions", %"class.duckdb::vector.37", i64 }
%"class.duckdb::shared_ptr.14" = type { %"class.std::shared_ptr.15" }
%"class.std::shared_ptr.15" = type { %"class.std::__shared_ptr.16" }
%"class.std::__shared_ptr.16" = type { ptr, %"class.std::__shared_count" }
%"struct.duckdb::MultiFileReaderOptions" = type { i8, i8, i8, i8, i8, i8, %"class.std::unordered_map", %"class.std::__cxx11::basic_string", %"class.std::unordered_map.23" }
%"class.std::unordered_map" = type { %"class.std::_Hashtable" }
%"class.std::_Hashtable" = type { ptr, i64, %"struct.std::__detail::_Hash_node_base", i64, %"struct.std::__detail::_Prime_rehash_policy", ptr }
%"struct.std::__detail::_Hash_node_base" = type { ptr }
%"struct.std::__detail::_Prime_rehash_policy" = type { float, i64 }
%"class.std::unordered_map.23" = type { %"class.std::_Hashtable.24" }
%"class.std::_Hashtable.24" = type { ptr, i64, %"struct.std::__detail::_Hash_node_base", i64, %"struct.std::__detail::_Prime_rehash_policy", ptr }
%"class.duckdb::vector.37" = type { %"class.std::vector.38" }
%"class.std::vector.38" = type { %"struct.std::_Vector_base.39" }
%"struct.std::_Vector_base.39" = type { %"struct.std::_Vector_base<duckdb::ParquetColumnDefinition, std::allocator<duckdb::ParquetColumnDefinition>>::_Vector_impl" }
%"struct.std::_Vector_base<duckdb::ParquetColumnDefinition, std::allocator<duckdb::ParquetColumnDefinition>>::_Vector_impl" = type { %"struct.std::_Vector_base<duckdb::ParquetColumnDefinition, std::allocator<duckdb::ParquetColumnDefinition>>::_Vector_impl_data" }
%"struct.std::_Vector_base<duckdb::ParquetColumnDefinition, std::allocator<duckdb::ParquetColumnDefinition>>::_Vector_impl_data" = type { ptr, ptr, ptr }
%"struct.duckdb::MultiFileReaderData" = type { %"class.duckdb::vector.43", %"class.duckdb::vector.49", %"class.duckdb::vector.43", i8, %"class.duckdb::vector.55", %"class.duckdb::optional_ptr", %"class.duckdb::vector.61", %"class.std::unordered_map.67", %"class.duckdb::optional_idx" }
%"class.duckdb::vector.49" = type { %"class.std::vector.50" }
%"class.std::vector.50" = type { %"struct.std::_Vector_base.51" }
%"struct.std::_Vector_base.51" = type { %"struct.std::_Vector_base<duckdb::ColumnIndex, std::allocator<duckdb::ColumnIndex>>::_Vector_impl" }
%"struct.std::_Vector_base<duckdb::ColumnIndex, std::allocator<duckdb::ColumnIndex>>::_Vector_impl" = type { %"struct.std::_Vector_base<duckdb::ColumnIndex, std::allocator<duckdb::ColumnIndex>>::_Vector_impl_data" }
%"struct.std::_Vector_base<duckdb::ColumnIndex, std::allocator<duckdb::ColumnIndex>>::_Vector_impl_data" = type { ptr, ptr, ptr }
%"class.duckdb::vector.43" = type { %"class.std::vector.44" }
%"class.std::vector.44" = type { %"struct.std::_Vector_base.45" }
%"struct.std::_Vector_base.45" = type { %"struct.std::_Vector_base<unsigned long, std::allocator<unsigned long>>::_Vector_impl" }
%"struct.std::_Vector_base<unsigned long, std::allocator<unsigned long>>::_Vector_impl" = type { %"struct.std::_Vector_base<unsigned long, std::allocator<unsigned long>>::_Vector_impl_data" }
%"struct.std::_Vector_base<unsigned long, std::allocator<unsigned long>>::_Vector_impl_data" = type { ptr, ptr, ptr }
%"class.duckdb::vector.55" = type { %"class.std::vector.56" }
%"class.std::vector.56" = type { %"struct.std::_Vector_base.57" }
%"struct.std::_Vector_base.57" = type { %"struct.std::_Vector_base<duckdb::MultiFileFilterEntry, std::allocator<duckdb::MultiFileFilterEntry>>::_Vector_impl" }
%"struct.std::_Vector_base<duckdb::MultiFileFilterEntry, std::allocator<duckdb::MultiFileFilterEntry>>::_Vector_impl" = type { %"struct.std::_Vector_base<duckdb::MultiFileFilterEntry, std::allocator<duckdb::MultiFileFilterEntry>>::_Vector_impl_data" }
%"struct.std::_Vector_base<duckdb::MultiFileFilterEntry, std::allocator<duckdb::MultiFileFilterEntry>>::_Vector_impl_data" = type { ptr, ptr, ptr }
%"class.duckdb::optional_ptr" = type { ptr }
%"class.duckdb::vector.61" = type { %"class.std::vector.62" }
%"class.std::vector.62" = type { %"struct.std::_Vector_base.63" }
%"struct.std::_Vector_base.63" = type { %"struct.std::_Vector_base<duckdb::MultiFileConstantEntry, std::allocator<duckdb::MultiFileConstantEntry>>::_Vector_impl" }
%"struct.std::_Vector_base<duckdb::MultiFileConstantEntry, std::allocator<duckdb::MultiFileConstantEntry>>::_Vector_impl" = type { %"struct.std::_Vector_base<duckdb::MultiFileConstantEntry, std::allocator<duckdb::MultiFileConstantEntry>>::_Vector_impl_data" }
%"struct.std::_Vector_base<duckdb::MultiFileConstantEntry, std::allocator<duckdb::MultiFileConstantEntry>>::_Vector_impl_data" = type { ptr, ptr, ptr }
%"class.std::unordered_map.67" = type { %"class.std::_Hashtable.68" }
%"class.std::_Hashtable.68" = type { ptr, i64, %"struct.std::__detail::_Hash_node_base", i64, %"struct.std::__detail::_Prime_rehash_policy", ptr }
%"class.duckdb::unique_ptr" = type { %"class.std::unique_ptr" }
%"class.std::unique_ptr" = type { %"struct.std::__uniq_ptr_data" }
%"struct.std::__uniq_ptr_data" = type { %"class.std::__uniq_ptr_impl" }
%"class.std::__uniq_ptr_impl" = type { %"class.std::tuple" }
%"class.std::tuple" = type { %"struct.std::_Tuple_impl" }
%"struct.std::_Tuple_impl" = type { %"struct.std::_Head_base.84" }
%"struct.std::_Head_base.84" = type { ptr }
%"class.duckdb::shared_ptr.85" = type { %"class.std::shared_ptr.86" }
%"class.std::shared_ptr.86" = type { %"class.std::__shared_ptr.87" }
%"class.std::__shared_ptr.87" = type { ptr, %"class.std::__shared_count" }
%"class.duckdb::vector.89" = type { %"class.std::vector.90" }
%"class.std::vector.90" = type { %"struct.std::_Vector_base.91" }
%"struct.std::_Vector_base.91" = type { %"struct.std::_Vector_base<std::__cxx11::basic_string<char>, std::allocator<std::__cxx11::basic_string<char>>>::_Vector_impl" }
%"struct.std::_Vector_base<std::__cxx11::basic_string<char>, std::allocator<std::__cxx11::basic_string<char>>>::_Vector_impl" = type { %"struct.std::_Vector_base<std::__cxx11::basic_string<char>, std::allocator<std::__cxx11::basic_string<char>>>::_Vector_impl_data" }
%"struct.std::_Vector_base<std::__cxx11::basic_string<char>, std::allocator<std::__cxx11::basic_string<char>>>::_Vector_impl_data" = type { ptr, ptr, ptr }
%"class.duckdb::unique_ptr.95" = type { %"class.std::unique_ptr.96" }
%"class.std::unique_ptr.96" = type { %"struct.std::__uniq_ptr_data.97" }
%"struct.std::__uniq_ptr_data.97" = type { %"class.std::__uniq_ptr_impl.98" }
%"class.std::__uniq_ptr_impl.98" = type { %"class.std::tuple.99" }
%"class.std::tuple.99" = type { %"struct.std::_Tuple_impl.100" }
%"struct.std::_Tuple_impl.100" = type { %"struct.std::_Head_base.103" }
%"struct.std::_Head_base.103" = type { ptr }

; Function Attrs: mustprogress nounwind uwtable
define linkonce_odr noundef zeroext i1 @_ZNKSt12__shared_ptrIN6duckdb23ParquetEncryptionConfigELN9__gnu_cxx12_Lock_policyE2EEcvbEv(ptr noundef nonnull align 8 dereferenceable(16) %0) #6 comdat align 2 {
  %2 = alloca ptr, align 8
  store ptr %0, ptr %2, align 8, !tbaa !1114
  %3 = load ptr, ptr %2, align 8
  %4 = getelementptr inbounds nuw %"class.std::__shared_ptr.16", ptr %3, i32 0, i32 0
  %5 = load ptr, ptr %4, align 8, !tbaa !1149
  %6 = icmp ne ptr %5, null
  ret i1 %6
}

; Function Attrs: mustprogress nounwind uwtable
define linkonce_odr noundef zeroext i1 @_ZNK6duckdb10shared_ptrINS_23ParquetEncryptionConfigELb1EEcvbEv(ptr noundef nonnull align 8 dereferenceable(16) %0) #6 comdat align 2 {
  %2 = alloca ptr, align 8
  store ptr %0, ptr %2, align 8, !tbaa !423
  %3 = load ptr, ptr %2, align 8
  %4 = getelementptr inbounds nuw %"class.duckdb::shared_ptr.14", ptr %3, i32 0, i32 0
  %5 = call noundef zeroext i1 @_ZNKSt12__shared_ptrIN6duckdb23ParquetEncryptionConfigELN9__gnu_cxx12_Lock_policyE2EEcvbEv(ptr noundef nonnull align 8 dereferenceable(16) %4) #3
  ret i1 %5
}

; Function Attrs: mustprogress uwtable
define noundef i32 @_ZN6duckdb13ParquetReader4ReadERN13duckdb_apache6thrift5TBaseERNS2_8protocol9TProtocolE(ptr noundef nonnull align 8 dereferenceable(560) %0, ptr noundef nonnull align 8 dereferenceable(8) %1, ptr noundef nonnull align 8 dereferenceable(36) %2) #4 align 2 {
  %4 = alloca i32, align 4
  %5 = alloca ptr, align 8
  %6 = alloca ptr, align 8
  %7 = alloca ptr, align 8
  store ptr %0, ptr %5, align 8, !tbaa !3
  store ptr %1, ptr %6, align 8, !tbaa !550
  store ptr %2, ptr %7, align 8, !tbaa !552
  %8 = load ptr, ptr %5, align 8
  %9 = getelementptr inbounds nuw %"class.duckdb::ParquetReader", ptr %8, i32 0, i32 5
  %10 = getelementptr inbounds nuw %"struct.duckdb::ParquetOptions", ptr %9, i32 0, i32 2
  %11 = call noundef zeroext i1 @_ZNK6duckdb10shared_ptrINS_23ParquetEncryptionConfigELb1EEcvbEv(ptr noundef nonnull align 8 dereferenceable(16) %10) #3
  br i1 %11, label %12, label %22

12:                                               ; preds = %3
  %13 = load ptr, ptr %6, align 8, !tbaa !550
  %14 = load ptr, ptr %7, align 8, !tbaa !552
  %15 = getelementptr inbounds nuw %"class.duckdb::ParquetReader", ptr %8, i32 0, i32 5
  %16 = getelementptr inbounds nuw %"struct.duckdb::ParquetOptions", ptr %15, i32 0, i32 2
  %17 = call noundef ptr @_ZNK6duckdb10shared_ptrINS_23ParquetEncryptionConfigELb1EEptEv(ptr noundef nonnull align 8 dereferenceable(16) %16)
  %18 = call noundef nonnull align 8 dereferenceable(32) ptr @_ZNK6duckdb23ParquetEncryptionConfig12GetFooterKeyB5cxx11Ev(ptr noundef nonnull align 8 dereferenceable(96) %17)
  %19 = getelementptr inbounds nuw %"class.duckdb::ParquetReader", ptr %8, i32 0, i32 8
  %20 = call noundef nonnull align 8 dereferenceable(8) ptr @_ZNK6duckdb10shared_ptrINS_14EncryptionUtilELb1EEdeEv(ptr noundef nonnull align 8 dereferenceable(16) %19)
  %21 = call noundef i32 @_ZN6duckdb13ParquetCrypto4ReadERN13duckdb_apache6thrift5TBaseERNS2_8protocol9TProtocolERKNSt7__cxx1112basic_stringIcSt11char_traitsIcESaIcEEERKNS_14EncryptionUtilE(ptr noundef nonnull align 8 dereferenceable(8) %13, ptr noundef nonnull align 8 dereferenceable(36) %14, ptr noundef nonnull align 8 dereferenceable(32) %18, ptr noundef nonnull align 8 dereferenceable(8) %20)
  store i32 %21, ptr %4, align 4
  br label %29

22:                                               ; preds = %3
  %23 = load ptr, ptr %6, align 8, !tbaa !550
  %24 = load ptr, ptr %7, align 8, !tbaa !552
  %25 = load ptr, ptr %23, align 8, !tbaa !464
  %26 = getelementptr inbounds ptr, ptr %25, i64 2
  %27 = load ptr, ptr %26, align 8
  %28 = call noundef i32 %27(ptr noundef nonnull align 8 dereferenceable(8) %23, ptr noundef %24)
  store i32 %28, ptr %4, align 4
  br label %29

29:                                               ; preds = %22, %12
  %30 = load i32, ptr %4, align 4
  ret i32 %30
}