; Function Attrs: mustprogress uwtable
define noundef i32 @_ZN6duckdb13ParquetReader4ReadERN13duckdb_apache6thrift5TBaseERNS2_8protocol9TProtocolE(ptr noundef nonnull align 8 dereferenceable(560) %0, ptr noundef nonnull align 8 dereferenceable(8) %1, ptr noundef nonnull align 8 dereferenceable(36) %2) local_unnamed_addr #3 align 2 {
  %4 = getelementptr inbounds nuw i8, ptr %0, i64 96
  %5 = load ptr, ptr %4, align 8, !tbaa !434
  %.not = icmp eq ptr %5, null
  br i1 %.not, label %12, label %6

6:                                                ; preds = %3
  %7 = tail call noundef ptr @_ZNK6duckdb10shared_ptrINS_23ParquetEncryptionConfigELb1EEptEv(ptr noundef nonnull align 8 dereferenceable(16) %4)
  %8 = tail call noundef nonnull align 8 dereferenceable(32) ptr @_ZNK6duckdb23ParquetEncryptionConfig12GetFooterKeyB5cxx11Ev(ptr noundef nonnull align 8 dereferenceable(96) %7)
  %9 = getelementptr inbounds nuw i8, ptr %0, i64 512
  %10 = tail call noundef nonnull align 8 dereferenceable(8) ptr @_ZNK6duckdb10shared_ptrINS_14EncryptionUtilELb1EEdeEv(ptr noundef nonnull align 8 dereferenceable(16) %9)
  %11 = tail call noundef i32 @_ZN6duckdb13ParquetCrypto4ReadERN13duckdb_apache6thrift5TBaseERNS2_8protocol9TProtocolERKNSt7__cxx1112basic_stringIcSt11char_traitsIcESaIcEEERKNS_14EncryptionUtilE(ptr noundef nonnull align 8 dereferenceable(8) %1, ptr noundef nonnull align 8 dereferenceable(36) %2, ptr noundef nonnull align 8 dereferenceable(32) %8, ptr noundef nonnull align 8 dereferenceable(8) %10)
  br label %17

12:                                               ; preds = %3
  %13 = load ptr, ptr %1, align 8, !tbaa !179
  %14 = getelementptr inbounds nuw i8, ptr %13, i64 16
  %15 = load ptr, ptr %14, align 8
  %16 = tail call noundef i32 %15(ptr noundef nonnull align 8 dereferenceable(8) %1, ptr noundef nonnull %2)
  br label %17

17:                                               ; preds = %12, %6
  %.0 = phi i32 [ %11, %6 ], [ %16, %12 ]
  ret i32 %.0
}